Certificate Request:
    Data:
        Version: 0 (0x0)
        Subject: 
        Subject Public Key Info:
            Public Key Algorithm: rsaEncryption
                Public-Key: (2048 bit)
                Modulus:
                    00:f0:66:a1:67:1c:2c:29:78:eb:71:30:54:22:c6:
                    97:a2:c5:96:39:78:37:f0:87:8a:e3:10:8e:0b:4b:
                    66:9e:91:57:d3:c9:fa:dc:6e:0c:88:fb:16:7d:37:
                    8c:5a:a0:db:fd:a8:01:a7:27:b7:65:3f:55:88:4a:
                    cf:86:8c:5d:dc:1c:86:f5:cf:1d:de:24:36:36:8e:
                    8d:14:b7:b8:32:d0:0c:d8:94:e1:7c:49:3f:34:2e:
                    a3:35:ad:3f:68:8d:92:cd:3e:ff:f0:c7:08:11:72:
                    5b:03:84:90:d0:dc:68:7b:cb:1b:ad:6f:f5:df:83:
                    42:0a:dd:1f:21:01:94:a2:be:f9:02:99:5d:f9:4b:
                    a6:56:5d:bb:1e:a8:2c:c8:00:c3:b3:44:7d:45:99:
                    45:ad:db:06:5d:f4:60:6c:46:0a:93:8f:d5:60:d1:
                    a4:51:f6:4a:92:e8:89:fb:bc:54:95:c7:46:40:3d:
                    16:92:da:4d:2b:ee:41:3f:ed:a8:b6:8e:16:f4:56:
                    23:d9:1a:c9:a9:a5:fe:60:49:96:d1:ec:e3:2a:fd:
                    0e:8f:ae:ff:32:18:9f:30:27:ad:93:d8:bc:d2:5b:
                    ee:da:b8:5c:02:4b:0a:eb:5e:8f:ee:9b:9b:af:c1:
                    fe:f1:9d:a4:01:90:6c:29:63:96:fb:87:24:94:2f:
                    b0:d9
                Exponent: 65537 (0x10001)
        Attributes:
            a0:00
    Signature Algorithm: sha256WithRSAEncryption
         a6:de:54:e2:26:72:34:8e:8c:fb:48:53:42:62:b7:8d:64:da:
         71:a7:09:7e:24:18:4e:c5:e8:cb:d9:03:d2:25:db:10:b2:43:
         f1:18:37:b5:8c:4c:75:38:dc:9e:7a:2a:59:87:9b:ae:44:19:
         b3:38:f0:bc:02:3e:c5:8a:08:d3:93:9b:c6:42:f6:e9:5d:71:
         b6:06:6d:9b:08:85:15:7e:62:bd:b7:35:43:35:63:11:56:06:
         5e:88:d1:e2:cb:6c:e7:55:4c:bd:c0:58:c1:72:4d:08:e0:78:
         8d:10:aa:84:ae:3e:05:70:c3:24:4e:ed:ab:9e:ed:db:33:fd:
         40:87:44:df:e9:cb:5b:7b:a1:98:92:c8:eb:39:7e:ce:95:4e:
         a9:01:82:8b:1b:57:8d:cc:84:ce:4b:ef:95:87:8d:12:5f:eb:
         a4:04:ae:82:b5:a3:8b:73:61:05:71:56:f5:6a:5b:3c:f6:54:
         07:04:02:4e:20:0f:1f:af:46:43:7c:54:44:46:5b:95:9e:78:
         4c:a8:2a:33:fb:40:e6:8f:69:59:7f:c8:6c:cc:2c:63:37:19:
         00:8d:20:df:20:23:38:cb:41:48:e8:e0:e3:64:43:5d:47:74:
         2e:02:07:b0:29:1d:49:b6:a6:89:13:c6:91:43:4c:ed:7f:b3:
         81:e7:f1:74
-----BEGIN CERTIFICATE REQUEST-----
MIICRTCCAS0CAQAwADCCASIwDQYJKoZIhvcNAQEBBQADggEPADCCAQoCggEBAPBm
oWccLCl463EwVCLGl6LFljl4N/CHiuMQjgtLZp6RV9PJ+txuDIj7Fn03jFqg2/2o
Aacnt2U/VYhKz4aMXdwchvXPHd4kNjaOjRS3uDLQDNiU4XxJPzQuozWtP2iNks0+
//DHCBFyWwOEkNDcaHvLG61v9d+DQgrdHyEBlKK++QKZXflLplZdux6oLMgAw7NE
fUWZRa3bBl30YGxGCpOP1WDRpFH2SpLoifu8VJXHRkA9FpLaTSvuQT/tqLaOFvRW
I9kayaml/mBJltHs4yr9Do+u/zIYnzAnrZPYvNJb7tq4XAJLCutej+6bm6/B/vGd
pAGQbCljlvuHJJQvsNkCAwEAAaAAMA0GCSqGSIb3DQEBCwUAA4IBAQCm3lTiJnI0
joz7SFNCYreNZNpxpwl+JBhOxejL2QPSJdsQskPxGDe1jEx1ONyeeipZh5uuRBmz
OPC8Aj7FigjTk5vGQvbpXXG2Bm2bCIUVfmK9tzVDNWMRVgZeiNHiy2znVUy9wFjB
ck0I4HiNEKqErj4FcMMkTu2rnu3bM/1Ah0Tf6ctbe6GYksjrOX7OlU6pAYKLG1eN
zITOS++Vh40SX+ukBK6CtaOLc2EFcVb1als89lQHBAJOIA8fr0ZDfFRERluVnnhM
qCoz+0Dmj2lZf8hszCxjNxkAjSDfICM4y0FI6ODjZENdR3QuAgewKR1JtqaJE8aR
Q0ztf7OB5/F0
-----END CERTIFICATE REQUEST-----
